target datalayout = "e-m:e-p270:32:32-p271:32:32-p272:64:64-i64:64-i128:128-f80:128-n8:16:32:64-S128"
target triple = "x86_64-pc-linux-gnu"

%struct.ietf_type_test_data = type { ptr, i64, i32 }

@.str.14 = private unnamed_addr constant [34 x i8] c"../openssl/test/x509_acert_test.c\00", align 1
@.str.23 = private unnamed_addr constant [39 x i8] c"bout = BIO_new_fp(stderr, BIO_NOCLOSE)\00", align 1
@stderr = external global ptr, align 8
@.str.26 = private unnamed_addr constant [2 x i8] c"1\00", align 1
@.str.33 = private unnamed_addr constant [4 x i8] c"ias\00", align 1
@.str.34 = private unnamed_addr constant [42 x i8] c"OSSL_IETF_ATTR_SYNTAX_print(bout, ias, 4)\00", align 1

; Function Attrs: nounwind uwtable
define internal i32 @test_object_group_attr(i32 noundef %0) #0 {
  %2 = alloca i32, align 4
  %3 = alloca i32, align 4
  %4 = alloca ptr, align 8
  %5 = alloca ptr, align 8
  %6 = alloca ptr, align 8
  %7 = alloca ptr, align 8
  store i32 %0, ptr %2, align 4, !tbaa !4
  call void @llvm.lifetime.start.p0(i64 4, ptr %3) #3
  store i32 0, ptr %3, align 4, !tbaa !4
  call void @llvm.lifetime.start.p0(i64 8, ptr %4) #3
  store ptr null, ptr %4, align 8, !tbaa !19
  call void @llvm.lifetime.start.p0(i64 8, ptr %5) #3
  store ptr null, ptr %5, align 8, !tbaa !13
  call void @llvm.lifetime.start.p0(i64 8, ptr %6) #3
  call void @llvm.lifetime.start.p0(i64 8, ptr %7) #3
  %8 = load i32, ptr %2, align 4, !tbaa !4
  %9 = sext i32 %8 to i64
  %10 = getelementptr inbounds [4 x %struct.ietf_type_test_data], ptr @ietf_syntax_tests, i64 0, i64 %9
  store ptr %10, ptr %7, align 8, !tbaa !21
  %11 = load ptr, ptr @stderr, align 8, !tbaa !15
  %12 = call ptr @BIO_new_fp(ptr noundef %11, i32 noundef 0)
  store ptr %12, ptr %5, align 8, !tbaa !13
  %13 = call i32 @test_ptr(ptr noundef @.str.14, i32 noundef 128, ptr noundef @.str.23, ptr noundef %12)
  %14 = icmp ne i32 %13, 0
  br i1 %14, label %16, label %15

15:                                               ; preds = %1
  br label %54

16:                                               ; preds = %1
  %17 = load ptr, ptr %7, align 8, !tbaa !21
  %18 = getelementptr inbounds nuw %struct.ietf_type_test_data, ptr %17, i32 0, i32 0
  %19 = load ptr, ptr %18, align 8, !tbaa !23
  store ptr %19, ptr %6, align 8, !tbaa !11
  %20 = load ptr, ptr %7, align 8, !tbaa !21
  %21 = getelementptr inbounds nuw %struct.ietf_type_test_data, ptr %20, i32 0, i32 1
  %22 = load i64, ptr %21, align 8, !tbaa !26
  %23 = call ptr @d2i_OSSL_IETF_ATTR_SYNTAX(ptr noundef null, ptr noundef %6, i64 noundef %22)
  store ptr %23, ptr %4, align 8, !tbaa !19
  %24 = load ptr, ptr %7, align 8, !tbaa !21
  %25 = getelementptr inbounds nuw %struct.ietf_type_test_data, ptr %24, i32 0, i32 2
  %26 = load i32, ptr %25, align 8, !tbaa !27
  %27 = icmp ne i32 %26, 0
  br i1 %27, label %28, label %32

28:                                               ; preds = %16
  %29 = load ptr, ptr %4, align 8, !tbaa !19
  %30 = call i32 @test_ptr(ptr noundef @.str.14, i32 noundef 135, ptr noundef @.str.33, ptr noundef %29)
  %31 = icmp ne i32 %30, 0
  br i1 %31, label %32, label %41

32:                                               ; preds = %28, %16
  %33 = load ptr, ptr %7, align 8, !tbaa !21
  %34 = getelementptr inbounds nuw %struct.ietf_type_test_data, ptr %33, i32 0, i32 2
  %35 = load i32, ptr %34, align 8, !tbaa !27
  %36 = icmp ne i32 %35, 0
  br i1 %36, label %42, label %37

37:                                               ; preds = %32
  %38 = load ptr, ptr %4, align 8, !tbaa !19
  %39 = call i32 @test_ptr_null(ptr noundef @.str.14, i32 noundef 136, ptr noundef @.str.33, ptr noundef %38)
  %40 = icmp ne i32 %39, 0
  br i1 %40, label %42, label %41

41:                                               ; preds = %37, %28
  br label %54

42:                                               ; preds = %37, %32
  %43 = load ptr, ptr %4, align 8, !tbaa !19
  %44 = icmp ne ptr %43, null
  br i1 %44, label %45, label %53

45:                                               ; preds = %42
  %46 = load ptr, ptr %5, align 8, !tbaa !13
  %47 = load ptr, ptr %4, align 8, !tbaa !19
  %48 = call i32 @OSSL_IETF_ATTR_SYNTAX_print(ptr noundef %46, ptr noundef %47, i32 noundef 4)
  %49 = call i32 @test_int_eq(ptr noundef @.str.14, i32 noundef 140, ptr noundef @.str.34, ptr noundef @.str.26, i32 noundef %48, i32 noundef 1)
  %50 = icmp ne i32 %49, 0
  br i1 %50, label %53, label %51

51:                                               ; preds = %45
  %52 = load ptr, ptr %4, align 8, !tbaa !19
  call void @OSSL_IETF_ATTR_SYNTAX_free(ptr noundef %52)
  br label %54

53:                                               ; preds = %45, %42
  store i32 1, ptr %3, align 4, !tbaa !4
  br label %54

54:                                               ; preds = %53, %51, %41, %15
  %55 = load ptr, ptr %4, align 8, !tbaa !19
  call void @OSSL_IETF_ATTR_SYNTAX_free(ptr noundef %55)
  %56 = load ptr, ptr %5, align 8, !tbaa !13
  %57 = call i32 @BIO_free(ptr noundef %56)
  %58 = load i32, ptr %3, align 4, !tbaa !4
  call void @llvm.lifetime.end.p0(i64 8, ptr %7) #3
  call void @llvm.lifetime.end.p0(i64 8, ptr %6) #3
  call void @llvm.lifetime.end.p0(i64 8, ptr %5) #3
  call void @llvm.lifetime.end.p0(i64 8, ptr %4) #3
  call void @llvm.lifetime.end.p0(i64 4, ptr %3) #3
  ret i32 %58
}