; Function Attrs: nounwind uwtable
define internal range(i32 0, 2) i32 @test_object_group_attr(i32 noundef %0) #1 {
  %2 = alloca ptr, align 8
  call void @llvm.lifetime.start.p0(i64 8, ptr nonnull %2) #4
  %3 = load ptr, ptr @stderr, align 8, !tbaa !4
  %4 = tail call ptr @BIO_new_fp(ptr noundef %3, i32 noundef 0) #4
  %5 = tail call i32 @test_ptr(ptr noundef nonnull @.str.14, i32 noundef 128, ptr noundef nonnull @.str.23, ptr noundef %4) #4
  %.not = icmp eq i32 %5, 0
  br i1 %.not, label %24, label %6

6:                                                ; preds = %1
  %7 = sext i32 %0 to i64
  %8 = getelementptr inbounds [4 x %struct.ietf_type_test_data], ptr @ietf_syntax_tests, i64 0, i64 %7
  %9 = load ptr, ptr %8, align 8, !tbaa !9
  store ptr %9, ptr %2, align 8, !tbaa !14
  %10 = getelementptr inbounds nuw i8, ptr %8, i64 8
  %11 = load i64, ptr %10, align 8, !tbaa !15
  %12 = call ptr @d2i_OSSL_IETF_ATTR_SYNTAX(ptr noundef null, ptr noundef nonnull %2, i64 noundef %11) #4
  %13 = getelementptr inbounds nuw i8, ptr %8, i64 16
  %14 = load i32, ptr %13, align 8, !tbaa !16
  %.not15 = icmp eq i32 %14, 0
  br i1 %.not15, label %17, label %15

15:                                               ; preds = %6
  %16 = call i32 @test_ptr(ptr noundef nonnull @.str.14, i32 noundef 135, ptr noundef nonnull @.str.33, ptr noundef %12) #4
  %.not16 = icmp eq i32 %16, 0
  br i1 %.not16, label %24, label %19

17:                                               ; preds = %6
  %18 = call i32 @test_ptr_null(ptr noundef nonnull @.str.14, i32 noundef 136, ptr noundef nonnull @.str.33, ptr noundef %12) #4
  %.not18 = icmp eq i32 %18, 0
  br i1 %.not18, label %24, label %19

19:                                               ; preds = %15, %17
  %.not19 = icmp eq ptr %12, null
  br i1 %.not19, label %24, label %20

20:                                               ; preds = %19
  %21 = call i32 @OSSL_IETF_ATTR_SYNTAX_print(ptr noundef %4, ptr noundef nonnull %12, i32 noundef 4) #4
  %22 = call i32 @test_int_eq(ptr noundef nonnull @.str.14, i32 noundef 140, ptr noundef nonnull @.str.34, ptr noundef nonnull @.str.26, i32 noundef %21, i32 noundef 1) #4
  %.not20 = icmp eq i32 %22, 0
  br i1 %.not20, label %23, label %24

23:                                               ; preds = %20
  call void @OSSL_IETF_ATTR_SYNTAX_free(ptr noundef nonnull %12) #4
  br label %24

24:                                               ; preds = %19, %20, %15, %17, %1, %23
  %.013 = phi ptr [ %12, %23 ], [ %12, %17 ], [ %12, %15 ], [ null, %1 ], [ %12, %20 ], [ null, %19 ]
  %.0 = phi i32 [ 0, %23 ], [ 0, %17 ], [ 0, %15 ], [ 0, %1 ], [ 1, %20 ], [ 1, %19 ]
  call void @OSSL_IETF_ATTR_SYNTAX_free(ptr noundef %.013) #4
  %25 = call i32 @BIO_free(ptr noundef %4) #4
  call void @llvm.lifetime.end.p0(i64 8, ptr nonnull %2) #4
  ret i32 %.0
}